target datalayout = "e-m:e-p270:32:32-p271:32:32-p272:64:64-i64:64-i128:128-f80:128-n8:16:32:64-S128"
target triple = "x86_64-pc-linux-gnu"

; Function Attrs: mustprogress nounwind uwtable
define void @uprv_mkdir(ptr noundef %0, ptr noundef %1) #0 {
  %3 = alloca ptr, align 8
  %4 = alloca ptr, align 8
  %5 = alloca i32, align 4
  store ptr %0, ptr %3, align 8, !tbaa !44
  store ptr %1, ptr %4, align 8, !tbaa !26
  call void @llvm.lifetime.start.p0(i64 4, ptr %5) #14
  store i32 0, ptr %5, align 4, !tbaa !22
  %6 = load ptr, ptr %3, align 8, !tbaa !44
  %7 = call i32 @mkdir(ptr noundef %6, i32 noundef 453) #14
  store i32 %7, ptr %5, align 4, !tbaa !22
  %8 = load i32, ptr %5, align 4, !tbaa !22
  %9 = icmp ne i32 %8, 0
  br i1 %9, label %10, label %16

10:                                               ; preds = %2
  %11 = call ptr @__errno_location() #17
  %12 = load i32, ptr %11, align 4, !tbaa !22
  %13 = icmp ne i32 %12, 17
  br i1 %13, label %14, label %16

14:                                               ; preds = %10
  %15 = load ptr, ptr %4, align 8, !tbaa !26
  store i32 4, ptr %15, align 4, !tbaa !29
  br label %16

16:                                               ; preds = %14, %10, %2
  call void @llvm.lifetime.end.p0(i64 4, ptr %5) #14
  ret void
}