; Function Attrs: mustprogress nofree nounwind uwtable
define void @uprv_mkdir(ptr noundef readonly captures(none) %0, ptr noundef writeonly captures(none) %1) local_unnamed_addr #15 {
  %3 = tail call i32 @mkdir(ptr noundef %0, i32 noundef 453) #23
  %.not = icmp eq i32 %3, 0
  br i1 %.not, label %8, label %4

4:                                                ; preds = %2
  %5 = tail call ptr @__errno_location() #27
  %6 = load i32, ptr %5, align 4, !tbaa !17
  %.not2 = icmp eq i32 %6, 17
  br i1 %.not2, label %8, label %7

7:                                                ; preds = %4
  store i32 4, ptr %1, align 4, !tbaa !16
  br label %8

8:                                                ; preds = %7, %4, %2
  ret void
}